; Function Attrs: nounwind uwtable
define i32 @H5Pset_fapl_sec2(i64 noundef %0) local_unnamed_addr #0 {
  %2 = load i8, ptr @H5_libinit_g, align 1
  %3 = trunc i8 %2 to i1
  %4 = load i8, ptr @H5_libterm_g, align 1
  %5 = trunc i8 %4 to i1
  %6 = select i1 %3, i1 true, i1 %5
  br i1 %6, label %14, label %7

7:                                                ; preds = %1
  %8 = tail call i32 @H5_init_library() #15
  %9 = icmp slt i32 %8, 0
  br i1 %9, label %10, label %14

10:                                               ; preds = %7
  %11 = load i64, ptr @H5E_FUNC_g, align 8
  %12 = load i64, ptr @H5E_CANTINIT_g, align 8
  %13 = tail call i32 (ptr, ptr, i32, i64, i64, ptr, ...) @H5E_printf_stack(ptr noundef nonnull @.str.4, ptr noundef nonnull @__func__.H5Pset_fapl_sec2, i32 noundef 262, i64 noundef %11, i64 noundef %12, ptr noundef nonnull @.str.5) #15
  br label %.thread18

14:                                               ; preds = %7, %1
  %15 = tail call i32 @H5CX_push() #15
  %16 = icmp slt i32 %15, 0
  br i1 %16, label %17, label %21

17:                                               ; preds = %14
  %18 = load i64, ptr @H5E_FUNC_g, align 8
  %19 = load i64, ptr @H5E_CANTSET_g, align 8
  %20 = tail call i32 (ptr, ptr, i32, i64, i64, ptr, ...) @H5E_printf_stack(ptr noundef nonnull @.str.4, ptr noundef nonnull @__func__.H5Pset_fapl_sec2, i32 noundef 262, i64 noundef %18, i64 noundef %19, ptr noundef nonnull @.str.6) #15
  br label %.thread18

21:                                               ; preds = %14
  %22 = tail call i32 @H5E_clear_stack() #15
  %23 = load i64, ptr @H5P_CLS_FILE_ACCESS_ID_g, align 8
  %24 = tail call ptr @H5P_object_verify(i64 noundef %0, i64 noundef %23) #15
  %25 = icmp eq ptr %24, null
  br i1 %25, label %.thread23, label %30

.thread23:                                        ; preds = %21
  %26 = load i64, ptr @H5E_ARGS_g, align 8
  %27 = load i64, ptr @H5E_BADTYPE_g, align 8
  %28 = tail call i32 (ptr, ptr, i32, i64, i64, ptr, ...) @H5E_printf_stack(ptr noundef nonnull @.str.4, ptr noundef nonnull @__func__.H5Pset_fapl_sec2, i32 noundef 265, i64 noundef %26, i64 noundef %27, ptr noundef nonnull @.str.7) #15
  %29 = tail call i32 @H5CX_pop(i1 noundef zeroext true) #15
  br label %.thread18

30:                                               ; preds = %21
  %31 = tail call i64 @H5FDperform_init(ptr noundef nonnull @H5FD_sec2_init) #15
  %32 = tail call i32 @H5P_set_driver(ptr noundef nonnull %24, i64 noundef %31, ptr noundef null, ptr noundef null) #15
  %33 = tail call i32 @H5CX_pop(i1 noundef zeroext true) #15
  br label %35

.thread18:                                        ; preds = %17, %10, %.thread23
  %34 = tail call i32 @H5E_dump_api_stack() #15
  br label %35

35:                                               ; preds = %30, %.thread18
  %.081321 = phi i32 [ -1, %.thread18 ], [ %32, %30 ]
  ret i32 %.081321
}